target datalayout = "e-m:e-p270:32:32-p271:32:32-p272:64:64-i64:64-i128:128-f80:128-n8:16:32:64-S128"
target triple = "x86_64-pc-linux-gnu"

%struct.ScanKeyData = type { i32, i16, i16, i32, i32, %struct.FmgrInfo, i64 }
%struct.FmgrInfo = type { ptr, i32, i16, i8, i8, i8, ptr, ptr, ptr }
%struct.RelationData = type { %struct.RelFileLocator, ptr, i32, i32, i8, i8, i8, i8, i8, i32, i32, i32, i32, ptr, ptr, i32, %struct.LockInfoData, ptr, ptr, ptr, ptr, ptr, i8, ptr, ptr, ptr, ptr, ptr, ptr, i32, ptr, i8, ptr, ptr, i32, i8, i32, ptr, i8, ptr, ptr, ptr, ptr, ptr, ptr, ptr, i32, ptr, ptr, ptr, ptr, ptr, ptr, ptr, ptr, ptr, ptr, ptr, ptr, ptr, ptr, ptr, ptr, ptr, ptr, ptr, i32, i8, ptr }
%struct.RelFileLocator = type { i32, i32, i32 }
%struct.LockInfoData = type { %struct.LockRelId }
%struct.LockRelId = type { i32, i32 }
%struct.FormData_pg_class = type { i32, %struct.nameData, i32, i32, i32, i32, i32, i32, i32, i32, float, i32, i32, i8, i8, i8, i8, i16, i16, i8, i8, i8, i8, i8, i8, i8, i8, i32, i32, i32 }
%struct.nameData = type { [64 x i8] }
%struct.FormData_pg_trigger = type { i32, i32, i32, %struct.nameData, i32, i16, i8, i8, i32, i32, i32, i8, i8, i16, %struct.int2vector }
%struct.int2vector = type { i32, i32, i32, i32, i32, i32, [0 x i16] }
%struct.HeapTupleData = type { i32, %struct.ItemPointerData, i32, ptr }
%struct.ItemPointerData = type { %struct.BlockIdData, i16 }
%struct.BlockIdData = type { i16, i16 }
%struct.HeapTupleHeaderData = type { %union.anon, %struct.ItemPointerData, i16, i16, i8, [0 x i8] }
%union.anon = type { %struct.HeapTupleFields }
%struct.HeapTupleFields = type { i32, i32, %union.anon.1 }
%union.anon.1 = type { i32 }

@.str.2 = private unnamed_addr constant [10 x i8] c"trigger.c\00", align 1
@.str.11 = private unnamed_addr constant [35 x i8] c"relation \22%s\22 cannot have triggers\00", align 1
@allowSystemTableMods = external global i8, align 1
@.str.12 = private unnamed_addr constant [44 x i8] c"permission denied: \22%s\22 is a system catalog\00", align 1
@.str.55 = private unnamed_addr constant [36 x i8] c"could not find tuple for trigger %u\00", align 1
@__func__.RemoveTriggerById = private unnamed_addr constant [18 x i8] c"RemoveTriggerById\00", align 1

; Function Attrs: inlinehint nounwind uwtable
define internal ptr @GETSTRUCT(ptr noundef %0) #7 {
  %2 = alloca ptr, align 8
  store ptr %0, ptr %2, align 8
  %3 = load ptr, ptr %2, align 8
  %4 = getelementptr inbounds nuw %struct.HeapTupleData, ptr %3, i32 0, i32 3
  %5 = load ptr, ptr %4, align 8
  %6 = load ptr, ptr %2, align 8
  %7 = getelementptr inbounds nuw %struct.HeapTupleData, ptr %6, i32 0, i32 3
  %8 = load ptr, ptr %7, align 8
  %9 = getelementptr inbounds nuw %struct.HeapTupleHeaderData, ptr %8, i32 0, i32 4
  %10 = load i8, ptr %9, align 2
  %11 = zext i8 %10 to i32
  %12 = sext i32 %11 to i64
  %13 = getelementptr inbounds i8, ptr %5, i64 %12
  ret ptr %13
}

; Function Attrs: inlinehint nounwind uwtable
define internal i64 @ObjectIdGetDatum(i32 noundef %0) #7 {
  %2 = alloca i32, align 4
  store i32 %0, ptr %2, align 4
  %3 = load i32, ptr %2, align 4
  %4 = zext i32 %3 to i64
  ret i64 %4
}

; Function Attrs: nounwind uwtable
define dso_local void @RemoveTriggerById(i32 noundef %0) #0 {
  %2 = alloca i32, align 4
  %3 = alloca ptr, align 8
  %4 = alloca ptr, align 8
  %5 = alloca [1 x %struct.ScanKeyData], align 16
  %6 = alloca ptr, align 8
  %7 = alloca i32, align 4
  %8 = alloca ptr, align 8
  store i32 %0, ptr %2, align 4
  call void @llvm.lifetime.start.p0(i64 8, ptr %3) #12
  call void @llvm.lifetime.start.p0(i64 8, ptr %4) #12
  call void @llvm.lifetime.start.p0(i64 72, ptr %5) #12
  call void @llvm.lifetime.start.p0(i64 8, ptr %6) #12
  call void @llvm.lifetime.start.p0(i64 4, ptr %7) #12
  call void @llvm.lifetime.start.p0(i64 8, ptr %8) #12
  %9 = call ptr @table_open(i32 noundef 2620, i32 noundef 3)
  store ptr %9, ptr %3, align 8
  %10 = getelementptr inbounds [1 x %struct.ScanKeyData], ptr %5, i64 0, i64 0
  %11 = load i32, ptr %2, align 4
  %12 = call i64 @ObjectIdGetDatum(i32 noundef %11)
  call void @ScanKeyInit(ptr noundef %10, i16 noundef signext 1, i16 noundef zeroext 3, i32 noundef 184, i64 noundef %12)
  %13 = load ptr, ptr %3, align 8
  %14 = getelementptr inbounds [1 x %struct.ScanKeyData], ptr %5, i64 0, i64 0
  %15 = call ptr @systable_beginscan(ptr noundef %13, i32 noundef 2702, i1 noundef zeroext true, ptr noundef null, i32 noundef 1, ptr noundef %14)
  store ptr %15, ptr %4, align 8
  %16 = load ptr, ptr %4, align 8
  %17 = call ptr @systable_getnext(ptr noundef %16)
  store ptr %17, ptr %6, align 8
  %18 = load ptr, ptr %6, align 8
  %19 = icmp ne ptr %18, null
  br i1 %19, label %32, label %20

20:                                               ; preds = %1
  br label %21

21:                                               ; preds = %20
  br i1 true, label %22, label %24

22:                                               ; preds = %21
  %23 = call zeroext i1 @errstart_cold(i32 noundef 21, ptr noundef null) #13
  br i1 %23, label %26, label %29

24:                                               ; preds = %21
  %25 = call zeroext i1 @errstart(i32 noundef 21, ptr noundef null)
  br i1 %25, label %26, label %29

26:                                               ; preds = %24, %22
  %27 = load i32, ptr %2, align 4
  %28 = call i32 (ptr, ...) @errmsg_internal(ptr noundef @.str.55, i32 noundef %27)
  call void @errfinish(ptr noundef @.str.2, i32 noundef 1315, ptr noundef @__func__.RemoveTriggerById)
  br label %29

29:                                               ; preds = %26, %24, %22
  unreachable

30:                                               ; No predecessors!
  br label %31

31:                                               ; preds = %30
  br label %32

32:                                               ; preds = %31, %1
  %33 = load ptr, ptr %6, align 8
  %34 = call ptr @GETSTRUCT(ptr noundef %33)
  %35 = getelementptr inbounds nuw %struct.FormData_pg_trigger, ptr %34, i32 0, i32 1
  %36 = load i32, ptr %35, align 4
  store i32 %36, ptr %7, align 4
  %37 = load i32, ptr %7, align 4
  %38 = call ptr @table_open(i32 noundef %37, i32 noundef 8)
  store ptr %38, ptr %8, align 8
  %39 = load ptr, ptr %8, align 8
  %40 = getelementptr inbounds nuw %struct.RelationData, ptr %39, i32 0, i32 13
  %41 = load ptr, ptr %40, align 8
  %42 = getelementptr inbounds nuw %struct.FormData_pg_class, ptr %41, i32 0, i32 16
  %43 = load i8, ptr %42, align 1
  %44 = sext i8 %43 to i32
  %45 = icmp ne i32 %44, 114
  br i1 %45, label %46, label %94

46:                                               ; preds = %32
  %47 = load ptr, ptr %8, align 8
  %48 = getelementptr inbounds nuw %struct.RelationData, ptr %47, i32 0, i32 13
  %49 = load ptr, ptr %48, align 8
  %50 = getelementptr inbounds nuw %struct.FormData_pg_class, ptr %49, i32 0, i32 16
  %51 = load i8, ptr %50, align 1
  %52 = sext i8 %51 to i32
  %53 = icmp ne i32 %52, 118
  br i1 %53, label %54, label %94

54:                                               ; preds = %46
  %55 = load ptr, ptr %8, align 8
  %56 = getelementptr inbounds nuw %struct.RelationData, ptr %55, i32 0, i32 13
  %57 = load ptr, ptr %56, align 8
  %58 = getelementptr inbounds nuw %struct.FormData_pg_class, ptr %57, i32 0, i32 16
  %59 = load i8, ptr %58, align 1
  %60 = sext i8 %59 to i32
  %61 = icmp ne i32 %60, 102
  br i1 %61, label %62, label %94

62:                                               ; preds = %54
  %63 = load ptr, ptr %8, align 8
  %64 = getelementptr inbounds nuw %struct.RelationData, ptr %63, i32 0, i32 13
  %65 = load ptr, ptr %64, align 8
  %66 = getelementptr inbounds nuw %struct.FormData_pg_class, ptr %65, i32 0, i32 16
  %67 = load i8, ptr %66, align 1
  %68 = sext i8 %67 to i32
  %69 = icmp ne i32 %68, 112
  br i1 %69, label %70, label %94

70:                                               ; preds = %62
  br label %71

71:                                               ; preds = %70
  br i1 true, label %72, label %74

72:                                               ; preds = %71
  %73 = call zeroext i1 @errstart_cold(i32 noundef 21, ptr noundef null) #13
  br i1 %73, label %76, label %91

74:                                               ; preds = %71
  %75 = call zeroext i1 @errstart(i32 noundef 21, ptr noundef null)
  br i1 %75, label %76, label %91

76:                                               ; preds = %74, %72
  %77 = call i32 @errcode(i32 noundef 151027844)
  %78 = load ptr, ptr %8, align 8
  %79 = getelementptr inbounds nuw %struct.RelationData, ptr %78, i32 0, i32 13
  %80 = load ptr, ptr %79, align 8
  %81 = getelementptr inbounds nuw %struct.FormData_pg_class, ptr %80, i32 0, i32 1
  %82 = getelementptr inbounds nuw %struct.nameData, ptr %81, i32 0, i32 0
  %83 = getelementptr inbounds [64 x i8], ptr %82, i64 0, i64 0
  %84 = call i32 (ptr, ...) @errmsg(ptr noundef @.str.11, ptr noundef %83)
  %85 = load ptr, ptr %8, align 8
  %86 = getelementptr inbounds nuw %struct.RelationData, ptr %85, i32 0, i32 13
  %87 = load ptr, ptr %86, align 8
  %88 = getelementptr inbounds nuw %struct.FormData_pg_class, ptr %87, i32 0, i32 16
  %89 = load i8, ptr %88, align 1
  %90 = call i32 @errdetail_relkind_not_supported(i8 noundef signext %89)
  call void @errfinish(ptr noundef @.str.2, i32 noundef 1332, ptr noundef @__func__.RemoveTriggerById)
  br label %91

91:                                               ; preds = %76, %74, %72
  unreachable

92:                                               ; No predecessors!
  br label %93

93:                                               ; preds = %92
  br label %94

94:                                               ; preds = %93, %62, %54, %46, %32
  %95 = load i8, ptr @allowSystemTableMods, align 1, !range !4, !noundef !5
  %96 = trunc i8 %95 to i1
  br i1 %96, label %118, label %97

97:                                               ; preds = %94
  %98 = load ptr, ptr %8, align 8
  %99 = call zeroext i1 @IsSystemRelation(ptr noundef %98)
  br i1 %99, label %100, label %118

100:                                              ; preds = %97
  br label %101

101:                                              ; preds = %100
  br i1 true, label %102, label %104

102:                                              ; preds = %101
  %103 = call zeroext i1 @errstart_cold(i32 noundef 21, ptr noundef null) #13
  br i1 %103, label %106, label %115

104:                                              ; preds = %101
  %105 = call zeroext i1 @errstart(i32 noundef 21, ptr noundef null)
  br i1 %105, label %106, label %115

106:                                              ; preds = %104, %102
  %107 = call i32 @errcode(i32 noundef 16797828)
  %108 = load ptr, ptr %8, align 8
  %109 = getelementptr inbounds nuw %struct.RelationData, ptr %108, i32 0, i32 13
  %110 = load ptr, ptr %109, align 8
  %111 = getelementptr inbounds nuw %struct.FormData_pg_class, ptr %110, i32 0, i32 1
  %112 = getelementptr inbounds nuw %struct.nameData, ptr %111, i32 0, i32 0
  %113 = getelementptr inbounds [64 x i8], ptr %112, i64 0, i64 0
  %114 = call i32 (ptr, ...) @errmsg(ptr noundef @.str.12, ptr noundef %113)
  call void @errfinish(ptr noundef @.str.2, i32 noundef 1338, ptr noundef @__func__.RemoveTriggerById)
  br label %115

115:                                              ; preds = %106, %104, %102
  unreachable

116:                                              ; No predecessors!
  br label %117

117:                                              ; preds = %116
  br label %118

118:                                              ; preds = %117, %97, %94
  %119 = load ptr, ptr %3, align 8
  %120 = load ptr, ptr %6, align 8
  %121 = getelementptr inbounds nuw %struct.HeapTupleData, ptr %120, i32 0, i32 1
  call void @CatalogTupleDelete(ptr noundef %119, ptr noundef %121)
  %122 = load ptr, ptr %4, align 8
  call void @systable_endscan(ptr noundef %122)
  %123 = load ptr, ptr %3, align 8
  call void @table_close(ptr noundef %123, i32 noundef 3)
  %124 = load ptr, ptr %8, align 8
  call void @CacheInvalidateRelcache(ptr noundef %124)
  %125 = load ptr, ptr %8, align 8
  call void @table_close(ptr noundef %125, i32 noundef 0)
  call void @llvm.lifetime.end.p0(i64 8, ptr %8) #12
  call void @llvm.lifetime.end.p0(i64 4, ptr %7) #12
  call void @llvm.lifetime.end.p0(i64 8, ptr %6) #12
  call void @llvm.lifetime.end.p0(i64 72, ptr %5) #12
  call void @llvm.lifetime.end.p0(i64 8, ptr %4) #12
  call void @llvm.lifetime.end.p0(i64 8, ptr %3) #12
  ret void
}