; Function Attrs: nounwind uwtable
define dso_local void @RemoveTriggerById(i32 noundef %0) local_unnamed_addr #0 {
  %2 = alloca [1 x %struct.ScanKeyData], align 16
  call void @llvm.lifetime.start.p0(i64 72, ptr nonnull %2) #16
  %3 = tail call ptr @table_open(i32 noundef 2620, i32 noundef 3) #16
  %4 = zext i32 %0 to i64
  call void @ScanKeyInit(ptr noundef nonnull %2, i16 noundef signext 1, i16 noundef zeroext 3, i32 noundef 184, i64 noundef %4) #16
  %5 = call ptr @systable_beginscan(ptr noundef %3, i32 noundef 2702, i1 noundef zeroext true, ptr noundef null, i32 noundef 1, ptr noundef nonnull %2) #16
  %6 = call ptr @systable_getnext(ptr noundef %5) #16
  %.not = icmp eq ptr %6, null
  br i1 %.not, label %7, label %10

7:                                                ; preds = %1
  %8 = call zeroext i1 @errstart_cold(i32 noundef 21, ptr noundef null) #17
  call void @llvm.assume(i1 %8)
  %9 = call i32 (ptr, ...) @errmsg_internal(ptr noundef nonnull @.str.55, i32 noundef %0) #16
  call void @errfinish(ptr noundef nonnull @.str.2, i32 noundef 1315, ptr noundef nonnull @__func__.RemoveTriggerById) #16
  unreachable

10:                                               ; preds = %1
  %11 = getelementptr i8, ptr %6, i64 16
  %.val = load ptr, ptr %11, align 8
  %12 = getelementptr inbounds nuw i8, ptr %.val, i64 22
  %13 = load i8, ptr %12, align 2
  %14 = zext i8 %13 to i64
  %15 = getelementptr inbounds nuw i8, ptr %.val, i64 %14
  %16 = getelementptr inbounds nuw i8, ptr %15, i64 4
  %17 = load i32, ptr %16, align 4
  %18 = call ptr @table_open(i32 noundef %17, i32 noundef 8) #16
  %19 = getelementptr inbounds nuw i8, ptr %18, i64 56
  %20 = load ptr, ptr %19, align 8
  %21 = getelementptr inbounds nuw i8, ptr %20, i64 115
  %22 = load i8, ptr %21, align 1
  %23 = add i8 %22, -102
  %24 = call i8 @llvm.fshl.i8(i8 %23, i8 %23, i8 7)
  switch i8 %24, label %25 [
    i8 6, label %35
    i8 8, label %35
    i8 0, label %35
    i8 5, label %35
  ]

25:                                               ; preds = %10
  %26 = call zeroext i1 @errstart_cold(i32 noundef 21, ptr noundef null) #17
  call void @llvm.assume(i1 %26)
  %27 = call i32 @errcode(i32 noundef 151027844) #16
  %28 = load ptr, ptr %19, align 8
  %29 = getelementptr inbounds nuw i8, ptr %28, i64 4
  %30 = call i32 (ptr, ...) @errmsg(ptr noundef nonnull @.str.11, ptr noundef nonnull %29) #16
  %31 = load ptr, ptr %19, align 8
  %32 = getelementptr inbounds nuw i8, ptr %31, i64 115
  %33 = load i8, ptr %32, align 1
  %34 = call i32 @errdetail_relkind_not_supported(i8 noundef signext %33) #16
  call void @errfinish(ptr noundef nonnull @.str.2, i32 noundef 1332, ptr noundef nonnull @__func__.RemoveTriggerById) #16
  unreachable

35:                                               ; preds = %10, %10, %10, %10
  %36 = load i8, ptr @allowSystemTableMods, align 1, !range !4, !noundef !5
  %37 = trunc nuw i8 %36 to i1
  br i1 %37, label %46, label %38

38:                                               ; preds = %35
  %39 = call zeroext i1 @IsSystemRelation(ptr noundef nonnull %18) #16
  br i1 %39, label %40, label %46

40:                                               ; preds = %38
  %41 = call zeroext i1 @errstart_cold(i32 noundef 21, ptr noundef null) #17
  call void @llvm.assume(i1 %41)
  %42 = call i32 @errcode(i32 noundef 16797828) #16
  %43 = load ptr, ptr %19, align 8
  %44 = getelementptr inbounds nuw i8, ptr %43, i64 4
  %45 = call i32 (ptr, ...) @errmsg(ptr noundef nonnull @.str.12, ptr noundef nonnull %44) #16
  call void @errfinish(ptr noundef nonnull @.str.2, i32 noundef 1338, ptr noundef nonnull @__func__.RemoveTriggerById) #16
  unreachable

46:                                               ; preds = %38, %35
  %47 = getelementptr inbounds nuw i8, ptr %6, i64 4
  call void @CatalogTupleDelete(ptr noundef %3, ptr noundef nonnull %47) #16
  call void @systable_endscan(ptr noundef %5) #16
  call void @table_close(ptr noundef %3, i32 noundef 3) #16
  call void @CacheInvalidateRelcache(ptr noundef nonnull %18) #16
  call void @table_close(ptr noundef nonnull %18, i32 noundef 0) #16
  call void @llvm.lifetime.end.p0(i64 72, ptr nonnull %2) #16
  ret void
}